target datalayout = "e-m:e-p270:32:32-p271:32:32-p272:64:64-i64:64-i128:128-f80:128-n8:16:32:64-S128"
target triple = "x86_64-pc-linux-gnu"

%struct._rio = type { ptr, ptr, ptr, ptr, ptr, i64, i64, i64, i64, %union.anon }
%union.anon = type { %struct.anon.2 }
%struct.anon.2 = type { ptr, i64, ptr, i64, i64 }

; Function Attrs: inlinehint nounwind uwtable
define internal i64 @rioWrite(ptr noundef %0, ptr noundef %1, i64 noundef %2) #6 {
  %4 = alloca i64, align 8
  %5 = alloca ptr, align 8
  %6 = alloca ptr, align 8
  %7 = alloca i64, align 8
  %8 = alloca i64, align 8
  %9 = alloca i32, align 4
  store ptr %0, ptr %5, align 8, !tbaa !53
  store ptr %1, ptr %6, align 8, !tbaa !55
  store i64 %2, ptr %7, align 8, !tbaa !56
  %10 = load ptr, ptr %5, align 8, !tbaa !53
  %11 = getelementptr inbounds nuw %struct._rio, ptr %10, i32 0, i32 6
  %12 = load i64, ptr %11, align 8, !tbaa !57
  %13 = and i64 %12, 6
  %14 = icmp ne i64 %13, 0
  br i1 %14, label %15, label %16

15:                                               ; preds = %3
  store i64 0, ptr %4, align 8
  br label %80

16:                                               ; preds = %3
  br label %17

17:                                               ; preds = %78, %16
  %18 = load i64, ptr %7, align 8, !tbaa !56
  %19 = icmp ne i64 %18, 0
  br i1 %19, label %20, label %79

20:                                               ; preds = %17
  call void @llvm.lifetime.start.p0(i64 8, ptr %8) #15
  %21 = load ptr, ptr %5, align 8, !tbaa !53
  %22 = getelementptr inbounds nuw %struct._rio, ptr %21, i32 0, i32 8
  %23 = load i64, ptr %22, align 8, !tbaa !59
  %24 = icmp ne i64 %23, 0
  br i1 %24, label %25, label %35

25:                                               ; preds = %20
  %26 = load ptr, ptr %5, align 8, !tbaa !53
  %27 = getelementptr inbounds nuw %struct._rio, ptr %26, i32 0, i32 8
  %28 = load i64, ptr %27, align 8, !tbaa !59
  %29 = load i64, ptr %7, align 8, !tbaa !56
  %30 = icmp ult i64 %28, %29
  br i1 %30, label %31, label %35

31:                                               ; preds = %25
  %32 = load ptr, ptr %5, align 8, !tbaa !53
  %33 = getelementptr inbounds nuw %struct._rio, ptr %32, i32 0, i32 8
  %34 = load i64, ptr %33, align 8, !tbaa !59
  br label %37

35:                                               ; preds = %25, %20
  %36 = load i64, ptr %7, align 8, !tbaa !56
  br label %37

37:                                               ; preds = %35, %31
  %38 = phi i64 [ %34, %31 ], [ %36, %35 ]
  store i64 %38, ptr %8, align 8, !tbaa !56
  %39 = load ptr, ptr %5, align 8, !tbaa !53
  %40 = getelementptr inbounds nuw %struct._rio, ptr %39, i32 0, i32 4
  %41 = load ptr, ptr %40, align 8, !tbaa !60
  %42 = icmp ne ptr %41, null
  br i1 %42, label %43, label %50

43:                                               ; preds = %37
  %44 = load ptr, ptr %5, align 8, !tbaa !53
  %45 = getelementptr inbounds nuw %struct._rio, ptr %44, i32 0, i32 4
  %46 = load ptr, ptr %45, align 8, !tbaa !60
  %47 = load ptr, ptr %5, align 8, !tbaa !53
  %48 = load ptr, ptr %6, align 8, !tbaa !55
  %49 = load i64, ptr %8, align 8, !tbaa !56
  call void %46(ptr noundef %47, ptr noundef %48, i64 noundef %49)
  br label %50

50:                                               ; preds = %43, %37
  %51 = load ptr, ptr %5, align 8, !tbaa !53
  %52 = getelementptr inbounds nuw %struct._rio, ptr %51, i32 0, i32 1
  %53 = load ptr, ptr %52, align 8, !tbaa !61
  %54 = load ptr, ptr %5, align 8, !tbaa !53
  %55 = load ptr, ptr %6, align 8, !tbaa !55
  %56 = load i64, ptr %8, align 8, !tbaa !56
  %57 = call i64 %53(ptr noundef %54, ptr noundef %55, i64 noundef %56)
  %58 = icmp eq i64 %57, 0
  br i1 %58, label %59, label %64

59:                                               ; preds = %50
  %60 = load ptr, ptr %5, align 8, !tbaa !53
  %61 = getelementptr inbounds nuw %struct._rio, ptr %60, i32 0, i32 6
  %62 = load i64, ptr %61, align 8, !tbaa !57
  %63 = or i64 %62, 2
  store i64 %63, ptr %61, align 8, !tbaa !57
  store i64 0, ptr %4, align 8
  store i32 1, ptr %9, align 4
  br label %76

64:                                               ; preds = %50
  %65 = load ptr, ptr %6, align 8, !tbaa !55
  %66 = load i64, ptr %8, align 8, !tbaa !56
  %67 = getelementptr inbounds nuw i8, ptr %65, i64 %66
  store ptr %67, ptr %6, align 8, !tbaa !55
  %68 = load i64, ptr %8, align 8, !tbaa !56
  %69 = load i64, ptr %7, align 8, !tbaa !56
  %70 = sub i64 %69, %68
  store i64 %70, ptr %7, align 8, !tbaa !56
  %71 = load i64, ptr %8, align 8, !tbaa !56
  %72 = load ptr, ptr %5, align 8, !tbaa !53
  %73 = getelementptr inbounds nuw %struct._rio, ptr %72, i32 0, i32 7
  %74 = load i64, ptr %73, align 8, !tbaa !62
  %75 = add i64 %74, %71
  store i64 %75, ptr %73, align 8, !tbaa !62
  store i32 0, ptr %9, align 4
  br label %76

76:                                               ; preds = %64, %59
  call void @llvm.lifetime.end.p0(i64 8, ptr %8) #15
  %77 = load i32, ptr %9, align 4
  switch i32 %77, label %82 [
    i32 0, label %78
    i32 1, label %80
  ]

78:                                               ; preds = %76
  br label %17, !llvm.loop !63

79:                                               ; preds = %17
  store i64 1, ptr %4, align 8
  br label %80

80:                                               ; preds = %79, %76, %15
  %81 = load i64, ptr %4, align 8
  ret i64 %81

82:                                               ; preds = %76
  unreachable
}

; Function Attrs: nounwind uwtable
define dso_local i64 @rdbWriteRaw(ptr noundef %0, ptr noundef %1, i64 noundef %2) #0 {
  %4 = alloca i64, align 8
  %5 = alloca ptr, align 8
  %6 = alloca ptr, align 8
  %7 = alloca i64, align 8
  store ptr %0, ptr %5, align 8, !tbaa !53
  store ptr %1, ptr %6, align 8, !tbaa !55
  store i64 %2, ptr %7, align 8, !tbaa !56
  %8 = load ptr, ptr %5, align 8, !tbaa !53
  %9 = icmp ne ptr %8, null
  br i1 %9, label %10, label %17

10:                                               ; preds = %3
  %11 = load ptr, ptr %5, align 8, !tbaa !53
  %12 = load ptr, ptr %6, align 8, !tbaa !55
  %13 = load i64, ptr %7, align 8, !tbaa !56
  %14 = call i64 @rioWrite(ptr noundef %11, ptr noundef %12, i64 noundef %13)
  %15 = icmp eq i64 %14, 0
  br i1 %15, label %16, label %17

16:                                               ; preds = %10
  store i64 -1, ptr %4, align 8
  br label %19

17:                                               ; preds = %10, %3
  %18 = load i64, ptr %7, align 8, !tbaa !56
  store i64 %18, ptr %4, align 8
  br label %19

19:                                               ; preds = %17, %16
  %20 = load i64, ptr %4, align 8
  ret i64 %20
}

; Function Attrs: nounwind uwtable
define dso_local i64 @rdbSaveDoubleValue(ptr noundef %0, double noundef %1) #0 {
  %3 = alloca ptr, align 8
  %4 = alloca double, align 8
  %5 = alloca [128 x i8], align 16
  %6 = alloca i32, align 4
  %7 = alloca i64, align 8
  %8 = alloca i32, align 4
  store ptr %0, ptr %3, align 8, !tbaa !53
  store double %1, ptr %4, align 8, !tbaa !79
  call void @llvm.lifetime.start.p0(i64 128, ptr %5) #15
  call void @llvm.lifetime.start.p0(i64 4, ptr %6) #15
  %9 = load double, ptr %4, align 8, !tbaa !79
  %10 = call i1 @llvm.is.fpclass.f64(double %9, i32 3)
  br i1 %10, label %11, label %13

11:                                               ; preds = %2
  %12 = getelementptr inbounds [128 x i8], ptr %5, i64 0, i64 0
  store i8 -3, ptr %12, align 16, !tbaa !65
  store i32 1, ptr %6, align 4, !tbaa !5
  br label %51

13:                                               ; preds = %2
  %14 = load double, ptr %4, align 8, !tbaa !79
  %15 = call i1 @llvm.is.fpclass.f64(double %14, i32 504)
  br i1 %15, label %22, label %16

16:                                               ; preds = %13
  store i32 1, ptr %6, align 4, !tbaa !5
  %17 = load double, ptr %4, align 8, !tbaa !79
  %18 = fcmp olt double %17, 0.000000e+00
  %19 = select i1 %18, i32 255, i32 254
  %20 = trunc i32 %19 to i8
  %21 = getelementptr inbounds [128 x i8], ptr %5, i64 0, i64 0
  store i8 %20, ptr %21, align 16, !tbaa !65
  br label %50

22:                                               ; preds = %13
  call void @llvm.lifetime.start.p0(i64 8, ptr %7) #15
  %23 = load double, ptr %4, align 8, !tbaa !79
  %24 = call i32 @double2ll(double noundef %23, ptr noundef %7)
  %25 = icmp ne i32 %24, 0
  br i1 %25, label %26, label %31

26:                                               ; preds = %22
  %27 = getelementptr inbounds [128 x i8], ptr %5, i64 0, i64 0
  %28 = getelementptr inbounds i8, ptr %27, i64 1
  %29 = load i64, ptr %7, align 8, !tbaa !68
  %30 = call i32 @ll2string(ptr noundef %28, i64 noundef 127, i64 noundef %29)
  br label %40

31:                                               ; preds = %22
  call void @llvm.lifetime.start.p0(i64 4, ptr %8) #15
  %32 = load double, ptr %4, align 8, !tbaa !79
  %33 = getelementptr inbounds [128 x i8], ptr %5, i64 0, i64 0
  %34 = getelementptr inbounds i8, ptr %33, i64 1
  %35 = call i32 @fpconv_dtoa(double noundef %32, ptr noundef %34)
  store i32 %35, ptr %8, align 4, !tbaa !5
  %36 = load i32, ptr %8, align 4, !tbaa !5
  %37 = add nsw i32 %36, 1
  %38 = sext i32 %37 to i64
  %39 = getelementptr inbounds [128 x i8], ptr %5, i64 0, i64 %38
  store i8 0, ptr %39, align 1, !tbaa !65
  call void @llvm.lifetime.end.p0(i64 4, ptr %8) #15
  br label %40

40:                                               ; preds = %31, %26
  %41 = getelementptr inbounds [128 x i8], ptr %5, i64 0, i64 0
  %42 = getelementptr inbounds i8, ptr %41, i64 1
  %43 = call i64 @strlen(ptr noundef %42) #18
  %44 = trunc i64 %43 to i8
  %45 = getelementptr inbounds [128 x i8], ptr %5, i64 0, i64 0
  store i8 %44, ptr %45, align 16, !tbaa !65
  %46 = getelementptr inbounds [128 x i8], ptr %5, i64 0, i64 0
  %47 = load i8, ptr %46, align 16, !tbaa !65
  %48 = zext i8 %47 to i32
  %49 = add nsw i32 %48, 1
  store i32 %49, ptr %6, align 4, !tbaa !5
  call void @llvm.lifetime.end.p0(i64 8, ptr %7) #15
  br label %50

50:                                               ; preds = %40, %16
  br label %51

51:                                               ; preds = %50, %11
  %52 = load ptr, ptr %3, align 8, !tbaa !53
  %53 = getelementptr inbounds [128 x i8], ptr %5, i64 0, i64 0
  %54 = load i32, ptr %6, align 4, !tbaa !5
  %55 = sext i32 %54 to i64
  %56 = call i64 @rdbWriteRaw(ptr noundef %52, ptr noundef %53, i64 noundef %55)
  call void @llvm.lifetime.end.p0(i64 4, ptr %6) #15
  call void @llvm.lifetime.end.p0(i64 128, ptr %5) #15
  ret i64 %56
}