; Function Attrs: nounwind uwtable
define dso_local range(i64 -1, 257) i64 @rdbSaveDoubleValue(ptr noundef %0, double noundef %1) local_unnamed_addr #0 {
  %3 = alloca [128 x i8], align 16
  %4 = alloca i64, align 8
  call void @llvm.lifetime.start.p0(i64 128, ptr nonnull %3) #23
  %5 = fcmp uno double %1, 0.000000e+00
  br i1 %5, label %6, label %7

6:                                                ; preds = %2
  store i8 -3, ptr %3, align 16, !tbaa !59
  br label %30

7:                                                ; preds = %2
  %8 = tail call double @llvm.fabs.f64(double %1)
  %9 = fcmp ueq double %8, 0x7FF0000000000000
  br i1 %9, label %10, label %13

10:                                               ; preds = %7
  %11 = fcmp olt double %1, 0.000000e+00
  %12 = select i1 %11, i8 -1, i8 -2
  store i8 %12, ptr %3, align 16, !tbaa !59
  br label %30

13:                                               ; preds = %7
  call void @llvm.lifetime.start.p0(i64 8, ptr nonnull %4) #23
  %14 = call i32 @double2ll(double noundef %1, ptr noundef nonnull %4) #23
  %.not = icmp eq i32 %14, 0
  %15 = getelementptr inbounds nuw i8, ptr %3, i64 1
  br i1 %.not, label %19, label %16

16:                                               ; preds = %13
  %17 = load i64, ptr %4, align 8, !tbaa !62
  %18 = call i32 @ll2string(ptr noundef nonnull %15, i64 noundef 127, i64 noundef %17) #23
  br label %24

19:                                               ; preds = %13
  %20 = call i32 @fpconv_dtoa(double noundef %1, ptr noundef nonnull %15) #23
  %21 = add nsw i32 %20, 1
  %22 = sext i32 %21 to i64
  %23 = getelementptr inbounds [128 x i8], ptr %3, i64 0, i64 %22
  store i8 0, ptr %23, align 1, !tbaa !59
  br label %24

24:                                               ; preds = %19, %16
  %25 = getelementptr inbounds nuw i8, ptr %3, i64 1
  %26 = call i64 @strlen(ptr noundef nonnull dereferenceable(1) %25) #27
  %27 = trunc i64 %26 to i8
  store i8 %27, ptr %3, align 16, !tbaa !59
  %28 = and i64 %26, 255
  %29 = add nuw nsw i64 %28, 1
  call void @llvm.lifetime.end.p0(i64 8, ptr nonnull %4) #23
  br label %30

30:                                               ; preds = %10, %24, %6
  %.0 = phi i64 [ 1, %6 ], [ %29, %24 ], [ 1, %10 ]
  %.not.i = icmp eq ptr %0, null
  br i1 %.not.i, label %rdbWriteRaw.exit, label %31

31:                                               ; preds = %30
  %32 = getelementptr inbounds nuw i8, ptr %0, i64 48
  %33 = load i64, ptr %32, align 8, !tbaa !53
  %34 = and i64 %33, 6
  %.not.i.i = icmp eq i64 %34, 0
  br i1 %.not.i.i, label %.preheader.i.i, label %rdbWriteRaw.exit

.preheader.i.i:                                   ; preds = %31
  %35 = getelementptr inbounds nuw i8, ptr %0, i64 64
  %36 = getelementptr inbounds nuw i8, ptr %0, i64 32
  %37 = getelementptr inbounds nuw i8, ptr %0, i64 8
  %38 = getelementptr inbounds nuw i8, ptr %0, i64 56
  br label %39

39:                                               ; preds = %51, %.preheader.i.i
  %.02539.i.i = phi i64 [ %.0, %.preheader.i.i ], [ %53, %51 ]
  %.02738.i.i = phi ptr [ %3, %.preheader.i.i ], [ %52, %51 ]
  %40 = load i64, ptr %35, align 8, !tbaa !55
  %.not32.not.i.i = icmp eq i64 %40, 0
  %41 = call i64 @llvm.umin.i64(i64 %40, i64 %.02539.i.i)
  %42 = select i1 %.not32.not.i.i, i64 %.02539.i.i, i64 %41
  %43 = load ptr, ptr %36, align 8, !tbaa !56
  %.not33.i.i = icmp eq ptr %43, null
  br i1 %.not33.i.i, label %45, label %44

44:                                               ; preds = %39
  call void %43(ptr noundef nonnull %0, ptr noundef %.02738.i.i, i64 noundef %42) #23
  br label %45

45:                                               ; preds = %44, %39
  %46 = load ptr, ptr %37, align 8, !tbaa !57
  %47 = call i64 %46(ptr noundef nonnull %0, ptr noundef %.02738.i.i, i64 noundef %42) #23
  %48 = icmp eq i64 %47, 0
  br i1 %48, label %.thread.i.i, label %51

.thread.i.i:                                      ; preds = %45
  %49 = load i64, ptr %32, align 8, !tbaa !53
  %50 = or i64 %49, 2
  store i64 %50, ptr %32, align 8, !tbaa !53
  br label %rdbWriteRaw.exit

51:                                               ; preds = %45
  %52 = getelementptr inbounds nuw i8, ptr %.02738.i.i, i64 %42
  %53 = sub i64 %.02539.i.i, %42
  %54 = load i64, ptr %38, align 8, !tbaa !58
  %55 = add i64 %54, %42
  store i64 %55, ptr %38, align 8, !tbaa !58
  %.not31.i.i = icmp eq i64 %53, 0
  br i1 %.not31.i.i, label %rdbWriteRaw.exit, label %39

rdbWriteRaw.exit:                                 ; preds = %51, %30, %31, %.thread.i.i
  %.0.i = phi i64 [ %.0, %30 ], [ -1, %31 ], [ -1, %.thread.i.i ], [ %.0, %51 ]
  call void @llvm.lifetime.end.p0(i64 128, ptr nonnull %3) #23
  ret i64 %.0.i
}